target datalayout = "e-m:e-p270:32:32-p271:32:32-p272:64:64-i64:64-i128:128-f80:128-n8:16:32:64-S128"
target triple = "x86_64-pc-linux-gnu"

%"class.toku::txnid_set" = type { %"class.toku::omt" }
%"class.toku::omt" = type { i8, i32, %union.anon }
%union.anon = type { %"struct.toku::omt<unsigned long>::omt_array" }
%"struct.toku::omt<unsigned long>::omt_array" = type { i32, i32, ptr }
%"struct.toku::omt<unsigned long>::omt_tree" = type { %"class.toku::omt_internal::subtree_templated", i32, ptr }
%"class.toku::omt_internal::subtree_templated" = type { i32 }

; Function Attrs: inlinehint mustprogress nounwind uwtable
define linkonce_odr void @_ZN4toku12omt_internal17subtree_templatedILb0EE11set_to_nullEv(ptr noundef nonnull align 4 dereferenceable(4) %0) #4 comdat align 2 {
  %2 = alloca ptr, align 8
  store ptr %0, ptr %2, align 8, !tbaa !26
  %3 = load ptr, ptr %2, align 8
  %4 = getelementptr inbounds nuw %"class.toku::omt_internal::subtree_templated", ptr %3, i32 0, i32 0
  store i32 -1, ptr %4, align 4, !tbaa !28
  ret void
}

; Function Attrs: mustprogress uwtable
define linkonce_odr void @_ZN4toku3omtImmLb0EE5clearEv(ptr noundef nonnull align 8 dereferenceable(24) %0) #1 comdat align 2 {
  %2 = alloca ptr, align 8
  store ptr %0, ptr %2, align 8, !tbaa !13
  %3 = load ptr, ptr %2, align 8
  %4 = getelementptr inbounds nuw %"class.toku::omt", ptr %3, i32 0, i32 0
  %5 = load i8, ptr %4, align 8, !tbaa !19, !range !20, !noundef !21
  %6 = trunc i8 %5 to i1
  br i1 %6, label %7, label %12

7:                                                ; preds = %1
  %8 = getelementptr inbounds nuw %"class.toku::omt", ptr %3, i32 0, i32 2
  %9 = getelementptr inbounds nuw %"struct.toku::omt<unsigned long>::omt_array", ptr %8, i32 0, i32 0
  store i32 0, ptr %9, align 8, !tbaa !22
  %10 = getelementptr inbounds nuw %"class.toku::omt", ptr %3, i32 0, i32 2
  %11 = getelementptr inbounds nuw %"struct.toku::omt<unsigned long>::omt_array", ptr %10, i32 0, i32 1
  store i32 0, ptr %11, align 4, !tbaa !22
  br label %17

12:                                               ; preds = %1
  %13 = getelementptr inbounds nuw %"class.toku::omt", ptr %3, i32 0, i32 2
  %14 = getelementptr inbounds nuw %"struct.toku::omt<unsigned long>::omt_tree", ptr %13, i32 0, i32 0
  call void @_ZN4toku12omt_internal17subtree_templatedILb0EE11set_to_nullEv(ptr noundef nonnull align 4 dereferenceable(4) %14)
  %15 = getelementptr inbounds nuw %"class.toku::omt", ptr %3, i32 0, i32 2
  %16 = getelementptr inbounds nuw %"struct.toku::omt<unsigned long>::omt_tree", ptr %15, i32 0, i32 1
  store i32 0, ptr %16, align 4, !tbaa !22
  br label %17

17:                                               ; preds = %12, %7
  ret void
}

; Function Attrs: mustprogress uwtable
define linkonce_odr void @_ZN4toku3omtImmLb0EE7destroyEv(ptr noundef nonnull align 8 dereferenceable(24) %0) #1 comdat align 2 {
  %2 = alloca ptr, align 8
  store ptr %0, ptr %2, align 8, !tbaa !13
  %3 = load ptr, ptr %2, align 8
  call void @_ZN4toku3omtImmLb0EE5clearEv(ptr noundef nonnull align 8 dereferenceable(24) %3)
  %4 = getelementptr inbounds nuw %"class.toku::omt", ptr %3, i32 0, i32 1
  store i32 0, ptr %4, align 4, !tbaa !15
  %5 = getelementptr inbounds nuw %"class.toku::omt", ptr %3, i32 0, i32 0
  %6 = load i8, ptr %5, align 8, !tbaa !19, !range !20, !noundef !21
  %7 = trunc i8 %6 to i1
  br i1 %7, label %8, label %20

8:                                                ; preds = %1
  %9 = getelementptr inbounds nuw %"class.toku::omt", ptr %3, i32 0, i32 2
  %10 = getelementptr inbounds nuw %"struct.toku::omt<unsigned long>::omt_array", ptr %9, i32 0, i32 2
  %11 = load ptr, ptr %10, align 8, !tbaa !22
  %12 = icmp ne ptr %11, null
  br i1 %12, label %13, label %17

13:                                               ; preds = %8
  %14 = getelementptr inbounds nuw %"class.toku::omt", ptr %3, i32 0, i32 2
  %15 = getelementptr inbounds nuw %"struct.toku::omt<unsigned long>::omt_array", ptr %14, i32 0, i32 2
  %16 = load ptr, ptr %15, align 8, !tbaa !22
  call void @_Z9toku_freePv(ptr noundef %16)
  br label %17

17:                                               ; preds = %13, %8
  %18 = getelementptr inbounds nuw %"class.toku::omt", ptr %3, i32 0, i32 2
  %19 = getelementptr inbounds nuw %"struct.toku::omt<unsigned long>::omt_array", ptr %18, i32 0, i32 2
  store ptr null, ptr %19, align 8, !tbaa !22
  br label %32

20:                                               ; preds = %1
  %21 = getelementptr inbounds nuw %"class.toku::omt", ptr %3, i32 0, i32 2
  %22 = getelementptr inbounds nuw %"struct.toku::omt<unsigned long>::omt_tree", ptr %21, i32 0, i32 2
  %23 = load ptr, ptr %22, align 8, !tbaa !22
  %24 = icmp ne ptr %23, null
  br i1 %24, label %25, label %29

25:                                               ; preds = %20
  %26 = getelementptr inbounds nuw %"class.toku::omt", ptr %3, i32 0, i32 2
  %27 = getelementptr inbounds nuw %"struct.toku::omt<unsigned long>::omt_tree", ptr %26, i32 0, i32 2
  %28 = load ptr, ptr %27, align 8, !tbaa !22
  call void @_Z9toku_freePv(ptr noundef %28)
  br label %29

29:                                               ; preds = %25, %20
  %30 = getelementptr inbounds nuw %"class.toku::omt", ptr %3, i32 0, i32 2
  %31 = getelementptr inbounds nuw %"struct.toku::omt<unsigned long>::omt_tree", ptr %30, i32 0, i32 2
  store ptr null, ptr %31, align 8, !tbaa !22
  br label %32

32:                                               ; preds = %29, %17
  ret void
}

; Function Attrs: mustprogress uwtable
define void @_ZN4toku9txnid_set7destroyEv(ptr noundef nonnull align 8 dereferenceable(24) %0) #1 align 2 {
  %2 = alloca ptr, align 8
  store ptr %0, ptr %2, align 8, !tbaa !11
  %3 = load ptr, ptr %2, align 8
  %4 = getelementptr inbounds nuw %"class.toku::txnid_set", ptr %3, i32 0, i32 0
  call void @_ZN4toku3omtImmLb0EE7destroyEv(ptr noundef nonnull align 8 dereferenceable(24) %4)
  ret void
}