; Function Attrs: mustprogress uwtable
define void @_ZN4toku9txnid_set7destroyEv(ptr noundef nonnull align 8 captures(none) dereferenceable(24) initializes((4, 16)) %0) local_unnamed_addr #2 align 2 {
  %2 = load i8, ptr %0, align 8, !tbaa !8, !range !12, !noundef !13
  %3 = trunc nuw i8 %2 to i1
  %4 = getelementptr inbounds nuw i8, ptr %0, i64 8
  %5 = getelementptr inbounds nuw i8, ptr %0, i64 12
  %6 = getelementptr inbounds nuw i8, ptr %0, i64 4
  %7 = getelementptr inbounds nuw i8, ptr %0, i64 16
  br i1 %3, label %8, label %10

8:                                                ; preds = %1
  store i32 0, ptr %4, align 8, !tbaa !14
  store i32 0, ptr %5, align 4, !tbaa !14
  store i32 0, ptr %6, align 4, !tbaa !15
  %9 = load ptr, ptr %7, align 8, !tbaa !14
  %.not2.i = icmp eq ptr %9, null
  br i1 %.not2.i, label %_ZN4toku3omtImmLb0EE7destroyEv.exit, label %.sink.split.i

10:                                               ; preds = %1
  store i32 -1, ptr %4, align 8, !tbaa !16
  store i32 0, ptr %5, align 4, !tbaa !14
  store i32 0, ptr %6, align 4, !tbaa !15
  %11 = load ptr, ptr %7, align 8, !tbaa !14
  %.not.i = icmp eq ptr %11, null
  br i1 %.not.i, label %_ZN4toku3omtImmLb0EE7destroyEv.exit, label %.sink.split.i

.sink.split.i:                                    ; preds = %10, %8
  %.sink.i = phi ptr [ %9, %8 ], [ %11, %10 ]
  tail call void @_Z9toku_freePv(ptr noundef nonnull %.sink.i)
  br label %_ZN4toku3omtImmLb0EE7destroyEv.exit

_ZN4toku3omtImmLb0EE7destroyEv.exit:              ; preds = %8, %10, %.sink.split.i
  store ptr null, ptr %7, align 8, !tbaa !14
  ret void
}